#include <math.h>
#include <stdio.h>
#include <stdlib.h>
#include <string.h>

int main()
{
 int k,n[100],i,j;
 double x[100][100],sum,ave,s;
 scanf("%d",&k);
 for(i=0;i<k;i++)
 {
  scanf("%d",&n[i]);
  for(j=0;j<n[i];j++)
   scanf("%lf",&x[i][j]);               
 }
 for(i=0;i<k;i++)
 {
  sum=0;
  s=0;
  for(j=0;j<n[i];j++)
   sum+=x[i][j];                
  ave=sum/n[i]; 
  for(j=0;j<n[i];j++)
   s+=(x[i][j]-ave)*(x[i][j]-ave);
  s=sqrt(s/n[i]);
  printf("%.5lf\n",s);               
 }
 
 getchar();
 getchar();
 return 0;    
}
